target datalayout = "e-m:e-p270:32:32-p271:32:32-p272:64:64-i64:64-i128:128-f80:128-n8:16:32:64-S128"
target triple = "x86_64-pc-linux-gnu"

%"class.std::optional" = type { %"struct.std::_Optional_base" }
%"struct.std::_Optional_base" = type { %"struct.std::_Optional_payload" }
%"struct.std::_Optional_payload" = type { %"struct.std::_Optional_payload_base.base", [3 x i8] }
%"struct.std::_Optional_payload_base.base" = type <{ %"union.std::_Optional_payload_base<std::array<int, 3>>::_Storage", i8 }>
%"union.std::_Optional_payload_base<std::array<int, 3>>::_Storage" = type { %"struct.std::array" }
%"struct.std::array" = type { [3 x i32] }
%"struct.std::_Optional_payload_base" = type <{ %"union.std::_Optional_payload_base<std::array<int, 3>>::_Storage", i8, [3 x i8] }>

; Function Attrs: mustprogress nounwind uwtable
define linkonce_odr void @_ZNSt22_Optional_payload_baseISt5arrayIiLm3EEE8_StorageIS1_Lb1EEC2IJS1_EEESt10in_place_tDpOT_(ptr noundef nonnull align 4 dereferenceable(12) %0, ptr noundef nonnull align 4 dereferenceable(12) %1) unnamed_addr #2 comdat align 2 {
  %3 = alloca ptr, align 8
  %4 = alloca ptr, align 8
  store ptr %0, ptr %3, align 8
  store ptr %1, ptr %4, align 8
  %5 = load ptr, ptr %3, align 8
  %6 = load ptr, ptr %4, align 8
  call void @llvm.memcpy.p0.p0.i64(ptr align 4 %5, ptr align 4 %6, i64 12, i1 false)
  ret void
}

; Function Attrs: mustprogress nounwind uwtable
define linkonce_odr void @_ZNSt22_Optional_payload_baseISt5arrayIiLm3EEE8_StorageIS1_Lb1EEC2Ev(ptr noundef nonnull align 4 dereferenceable(12) %0) unnamed_addr #2 comdat align 2 {
  %2 = alloca ptr, align 8
  store ptr %0, ptr %2, align 8
  ret void
}

; Function Attrs: mustprogress uwtable
define linkonce_odr void @_ZNSt22_Optional_payload_baseISt5arrayIiLm3EEEC2IJS1_EEESt10in_place_tDpOT_(ptr noundef nonnull align 4 dereferenceable(13) %0, ptr noundef nonnull align 4 dereferenceable(12) %1) unnamed_addr #0 comdat align 2 {
  %3 = alloca ptr, align 8
  %4 = alloca ptr, align 8
  store ptr %0, ptr %3, align 8
  store ptr %1, ptr %4, align 8
  %5 = load ptr, ptr %3, align 8
  %6 = getelementptr inbounds %"struct.std::_Optional_payload_base", ptr %5, i32 0, i32 0
  %7 = load ptr, ptr %4, align 8
  call void @_ZNSt22_Optional_payload_baseISt5arrayIiLm3EEE8_StorageIS1_Lb1EEC2IJS1_EEESt10in_place_tDpOT_(ptr noundef nonnull align 4 dereferenceable(12) %6, ptr noundef nonnull align 4 dereferenceable(12) %7)
  %8 = getelementptr inbounds %"struct.std::_Optional_payload_base", ptr %5, i32 0, i32 1
  store i8 1, ptr %8, align 4
  ret void
}

; Function Attrs: mustprogress nounwind uwtable
define linkonce_odr void @_ZNSt22_Optional_payload_baseISt5arrayIiLm3EEEC2Ev(ptr noundef nonnull align 4 dereferenceable(13) %0) unnamed_addr #2 comdat align 2 {
  %2 = alloca ptr, align 8
  store ptr %0, ptr %2, align 8
  %3 = load ptr, ptr %2, align 8
  %4 = getelementptr inbounds %"struct.std::_Optional_payload_base", ptr %3, i32 0, i32 0
  call void @_ZNSt22_Optional_payload_baseISt5arrayIiLm3EEE8_StorageIS1_Lb1EEC2Ev(ptr noundef nonnull align 4 dereferenceable(12) %4) #13
  %5 = getelementptr inbounds %"struct.std::_Optional_payload_base", ptr %3, i32 0, i32 1
  store i8 0, ptr %5, align 4
  ret void
}

; Function Attrs: mustprogress uwtable
define linkonce_odr void @_ZNSt17_Optional_payloadISt5arrayIiLm3EELb1ELb1ELb1EECI2St22_Optional_payload_baseIS1_EIJS1_EEESt10in_place_tDpOT_(ptr noundef nonnull align 4 dereferenceable(13) %0, ptr noundef nonnull align 4 dereferenceable(12) %1) unnamed_addr #0 comdat align 2 {
  %3 = alloca ptr, align 8
  %4 = alloca ptr, align 8
  store ptr %0, ptr %3, align 8
  store ptr %1, ptr %4, align 8
  %5 = load ptr, ptr %3, align 8
  %6 = load ptr, ptr %4, align 8
  call void @_ZNSt22_Optional_payload_baseISt5arrayIiLm3EEEC2IJS1_EEESt10in_place_tDpOT_(ptr noundef nonnull align 4 dereferenceable(13) %5, ptr noundef nonnull align 4 dereferenceable(12) %6)
  ret void
}

; Function Attrs: mustprogress nounwind uwtable
define linkonce_odr void @_ZNSt17_Optional_payloadISt5arrayIiLm3EELb1ELb1ELb1EEC2Ev(ptr noundef nonnull align 4 dereferenceable(13) %0) unnamed_addr #2 comdat align 2 {
  %2 = alloca ptr, align 8
  store ptr %0, ptr %2, align 8
  %3 = load ptr, ptr %2, align 8
  call void @_ZNSt22_Optional_payload_baseISt5arrayIiLm3EEEC2Ev(ptr noundef nonnull align 4 dereferenceable(13) %3) #13
  ret void
}

; Function Attrs: noreturn nounwind uwtable
define linkonce_odr hidden void @__clang_call_terminate(ptr noundef %0) #3 comdat {
  %2 = call ptr @__cxa_begin_catch(ptr %0) #13
  call void @_ZSt9terminatev() #14
  unreachable
}

; Function Attrs: mustprogress uwtable
define linkonce_odr void @_ZNSt14_Optional_baseISt5arrayIiLm3EELb1ELb1EEC2IJS1_ETnNSt9enable_ifIX18is_constructible_vIS1_DpT_EEbE4typeELb0EEESt10in_place_tDpOS5_(ptr noundef nonnull align 4 dereferenceable(16) %0, ptr noundef nonnull align 4 dereferenceable(12) %1) unnamed_addr #0 comdat align 2 {
  %3 = alloca ptr, align 8
  %4 = alloca ptr, align 8
  store ptr %0, ptr %3, align 8
  store ptr %1, ptr %4, align 8
  %5 = load ptr, ptr %3, align 8
  %6 = getelementptr inbounds %"struct.std::_Optional_base", ptr %5, i32 0, i32 0
  %7 = load ptr, ptr %4, align 8
  call void @_ZNSt17_Optional_payloadISt5arrayIiLm3EELb1ELb1ELb1EECI2St22_Optional_payload_baseIS1_EIJS1_EEESt10in_place_tDpOT_(ptr noundef nonnull align 4 dereferenceable(13) %6, ptr noundef nonnull align 4 dereferenceable(12) %7)
  ret void
}

; Function Attrs: mustprogress nounwind uwtable
define linkonce_odr void @_ZNSt14_Optional_baseISt5arrayIiLm3EELb1ELb1EEC2Ev(ptr noundef nonnull align 4 dereferenceable(16) %0) unnamed_addr #2 comdat align 2 {
  %2 = alloca ptr, align 8
  store ptr %0, ptr %2, align 8
  %3 = load ptr, ptr %2, align 8
  %4 = getelementptr inbounds %"struct.std::_Optional_base", ptr %3, i32 0, i32 0
  call void @_ZNSt17_Optional_payloadISt5arrayIiLm3EELb1ELb1ELb1EEC2Ev(ptr noundef nonnull align 4 dereferenceable(13) %4) #13
  ret void
}

; Function Attrs: mustprogress nounwind uwtable
define linkonce_odr void @_ZNSt8optionalISt5arrayIiLm3EEEC2IS1_TnNSt9enable_ifIX7__and_vISt6__not_ISt7is_sameIS2_NSt9remove_cvINSt16remove_referenceIT_E4typeEE4typeEEES5_IS6_ISt10in_place_tSD_EESt16is_constructibleIS1_JS9_EESt14is_convertibleIS9_S1_EEEbE4typeELb1EEEOS9_(ptr noundef nonnull align 4 dereferenceable(16) %0, ptr noundef nonnull align 4 dereferenceable(12) %1) unnamed_addr #2 comdat align 2 personality ptr @__gxx_personality_v0 {
  %3 = alloca ptr, align 8
  %4 = alloca ptr, align 8
  store ptr %0, ptr %3, align 8
  store ptr %1, ptr %4, align 8
  %5 = load ptr, ptr %3, align 8
  %6 = load ptr, ptr %4, align 8
  invoke void @_ZNSt14_Optional_baseISt5arrayIiLm3EELb1ELb1EEC2IJS1_ETnNSt9enable_ifIX18is_constructible_vIS1_DpT_EEbE4typeELb0EEESt10in_place_tDpOS5_(ptr noundef nonnull align 4 dereferenceable(16) %5, ptr noundef nonnull align 4 dereferenceable(12) %6)
          to label %7 unwind label %8

7:                                                ; preds = %2
  ret void

8:                                                ; preds = %2
  %9 = landingpad { ptr, i32 }
          catch ptr null
  %10 = extractvalue { ptr, i32 } %9, 0
  call void @__clang_call_terminate(ptr %10) #14
  unreachable
}

; Function Attrs: mustprogress nounwind uwtable
define linkonce_odr void @_ZNSt8optionalISt5arrayIiLm3EEEC2Ev(ptr noundef nonnull align 4 dereferenceable(16) %0) unnamed_addr #2 comdat align 2 {
  %2 = alloca ptr, align 8
  store ptr %0, ptr %2, align 8
  %3 = load ptr, ptr %2, align 8
  call void @_ZNSt14_Optional_baseISt5arrayIiLm3EELb1ELb1EEC2Ev(ptr noundef nonnull align 4 dereferenceable(16) %3) #13
  ret void
}

; Function Attrs: mustprogress uwtable
define { i64, i64 } @_ZN5ZXing10DataMatrix22DecodedBitStreamParser16DecodeNextTripleERNS_9BitSourceE(ptr noundef nonnull align 8 dereferenceable(16) %0) #0 {
  %2 = alloca %"class.std::optional", align 4
  %3 = alloca ptr, align 8
  %4 = alloca i32, align 4
  %5 = alloca i32, align 4
  %6 = alloca i32, align 4
  %7 = alloca i32, align 4
  %8 = alloca i32, align 4
  %9 = alloca %"struct.std::array", align 4
  store ptr %0, ptr %3, align 8
  %10 = load ptr, ptr %3, align 8
  %11 = call noundef i32 @_ZNK5ZXing9BitSource9availableEv(ptr noundef nonnull align 8 dereferenceable(16) %10)
  %12 = icmp slt i32 %11, 16
  br i1 %12, label %13, label %14

13:                                               ; preds = %1
  call void @_ZNSt8optionalISt5arrayIiLm3EEEC2Ev(ptr noundef nonnull align 4 dereferenceable(16) %2) #13
  br label %46

14:                                               ; preds = %1
  %15 = load ptr, ptr %3, align 8
  %16 = call noundef i32 @_ZN5ZXing9BitSource8readBitsEi(ptr noundef nonnull align 8 dereferenceable(16) %15, i32 noundef 8)
  store i32 %16, ptr %4, align 4
  %17 = load i32, ptr %4, align 4
  %18 = icmp eq i32 %17, 254
  br i1 %18, label %19, label %20

19:                                               ; preds = %14
  call void @_ZNSt8optionalISt5arrayIiLm3EEEC2Ev(ptr noundef nonnull align 4 dereferenceable(16) %2) #13
  br label %46

20:                                               ; preds = %14
  %21 = load i32, ptr %4, align 4
  %22 = shl i32 %21, 8
  %23 = load ptr, ptr %3, align 8
  %24 = call noundef i32 @_ZN5ZXing9BitSource8readBitsEi(ptr noundef nonnull align 8 dereferenceable(16) %23, i32 noundef 8)
  %25 = add nsw i32 %22, %24
  %26 = sub nsw i32 %25, 1
  store i32 %26, ptr %5, align 4
  %27 = load i32, ptr %5, align 4
  %28 = sdiv i32 %27, 1600
  store i32 %28, ptr %6, align 4
  %29 = load i32, ptr %6, align 4
  %30 = mul nsw i32 %29, 1600
  %31 = load i32, ptr %5, align 4
  %32 = sub nsw i32 %31, %30
  store i32 %32, ptr %5, align 4
  %33 = load i32, ptr %5, align 4
  %34 = sdiv i32 %33, 40
  store i32 %34, ptr %7, align 4
  %35 = load i32, ptr %5, align 4
  %36 = load i32, ptr %7, align 4
  %37 = mul nsw i32 %36, 40
  %38 = sub nsw i32 %35, %37
  store i32 %38, ptr %8, align 4
  %39 = getelementptr inbounds %"struct.std::array", ptr %9, i32 0, i32 0
  %40 = getelementptr inbounds [3 x i32], ptr %39, i64 0, i64 0
  %41 = load i32, ptr %6, align 4
  store i32 %41, ptr %40, align 4
  %42 = getelementptr inbounds i32, ptr %40, i64 1
  %43 = load i32, ptr %7, align 4
  store i32 %43, ptr %42, align 4
  %44 = getelementptr inbounds i32, ptr %42, i64 1
  %45 = load i32, ptr %8, align 4
  store i32 %45, ptr %44, align 4
  call void @_ZNSt8optionalISt5arrayIiLm3EEEC2IS1_TnNSt9enable_ifIX7__and_vISt6__not_ISt7is_sameIS2_NSt9remove_cvINSt16remove_referenceIT_E4typeEE4typeEEES5_IS6_ISt10in_place_tSD_EESt16is_constructibleIS1_JS9_EESt14is_convertibleIS9_S1_EEEbE4typeELb1EEEOS9_(ptr noundef nonnull align 4 dereferenceable(16) %2, ptr noundef nonnull align 4 dereferenceable(12) %9) #13
  br label %46

46:                                               ; preds = %20, %19, %13
  %47 = getelementptr inbounds %"class.std::optional", ptr %2, i32 0, i32 0
  %48 = getelementptr inbounds %"struct.std::_Optional_base", ptr %47, i32 0, i32 0
  %49 = load { i64, i64 }, ptr %48, align 4
  ret { i64, i64 } %49
}