; Function Attrs: mustprogress uwtable
define { i64, i64 } @_ZN5ZXing10DataMatrix22DecodedBitStreamParser16DecodeNextTripleERNS_9BitSourceE(ptr noundef nonnull align 8 dereferenceable(16) %0) local_unnamed_addr #0 personality ptr @__gxx_personality_v0 {
  %2 = tail call noundef i32 @_ZNK5ZXing9BitSource9availableEv(ptr noundef nonnull align 8 dereferenceable(16) %0)
  %3 = icmp slt i32 %2, 16
  br i1 %3, label %20, label %4

4:                                                ; preds = %1
  %5 = tail call noundef i32 @_ZN5ZXing9BitSource8readBitsEi(ptr noundef nonnull align 8 dereferenceable(16) %0, i32 noundef 8)
  %6 = icmp eq i32 %5, 254
  br i1 %6, label %20, label %7

7:                                                ; preds = %4
  %8 = shl i32 %5, 8
  %9 = tail call noundef i32 @_ZN5ZXing9BitSource8readBitsEi(ptr noundef nonnull align 8 dereferenceable(16) %0, i32 noundef 8)
  %10 = add i32 %8, -1
  %11 = add i32 %10, %9
  %12 = sdiv i32 %11, 1600
  %.neg = mul nsw i32 %12, -1600
  %13 = add i32 %.neg, %11
  %14 = sdiv i32 %13, 40
  %.neg13 = mul nsw i32 %14, -40
  %15 = add i32 %.neg13, %13
  %16 = zext i32 %14 to i64
  %17 = shl nuw i64 %16, 32
  %18 = zext i32 %12 to i64
  %19 = zext i32 %15 to i64
  br label %20

20:                                               ; preds = %4, %1, %7
  %.sroa.014.0 = phi i64 [ %18, %7 ], [ 0, %1 ], [ 0, %4 ]
  %.sroa.215.0 = phi i64 [ %17, %7 ], [ 0, %1 ], [ 0, %4 ]
  %.sroa.316.0 = phi i64 [ %19, %7 ], [ 0, %1 ], [ 0, %4 ]
  %.sroa.5.0 = phi i64 [ 4294967296, %7 ], [ 0, %1 ], [ 0, %4 ]
  %.sroa.014.0.insert.insert = or disjoint i64 %.sroa.215.0, %.sroa.014.0
  %.fca.0.insert = insertvalue { i64, i64 } poison, i64 %.sroa.014.0.insert.insert, 0
  %.sroa.316.8.insert.insert = or disjoint i64 %.sroa.5.0, %.sroa.316.0
  %.fca.1.insert = insertvalue { i64, i64 } %.fca.0.insert, i64 %.sroa.316.8.insert.insert, 1
  ret { i64, i64 } %.fca.1.insert
}